; Function Attrs: mustprogress nofree nounwind willreturn memory(read, inaccessiblemem: none) uwtable
define dso_local noundef zeroext i1 @_ZNK4node4quic19StatelessResetTokeneqERKS1_(ptr nocapture noundef nonnull readonly align 8 dereferenceable(32) %this, ptr nocapture noundef nonnull readonly align 8 dereferenceable(32) %other) local_unnamed_addr #11 align 2 {
entry:
  %ptr_ = getelementptr inbounds i8, ptr %this, i64 8
  %0 = load ptr, ptr %ptr_, align 8
  %ptr_2 = getelementptr inbounds i8, ptr %other, i64 8
  %1 = load ptr, ptr %ptr_2, align 8
  %cmp = icmp eq ptr %0, %1
  br i1 %cmp, label %return, label %if.end

if.end:                                           ; preds = %entry
  %cmp4 = icmp ne ptr %0, null
  %2 = icmp ne ptr %1, null
  %or.cond6 = xor i1 %cmp4, %2
  br i1 %or.cond6, label %return, label %if.end13

if.end13:                                         ; preds = %if.end
  %bcmp = tail call i32 @bcmp(ptr noundef nonnull dereferenceable(16) %0, ptr noundef nonnull dereferenceable(16) %1, i64 16)
  %cmp16 = icmp eq i32 %bcmp, 0
  br label %return

return:                                           ; preds = %if.end, %entry, %if.end13
  %retval.0 = phi i1 [ %cmp16, %if.end13 ], [ true, %entry ], [ false, %if.end ]
  ret i1 %retval.0
}